target datalayout = "e-m:e-p270:32:32-p271:32:32-p272:64:64-i64:64-i128:128-f80:128-n8:16:32:64-S128"
target triple = "x86_64-unknown-linux-gnu"

@used_memory = internal global i64 0, align 8

; Function Attrs: nounwind uwtable
define dso_local void @zfree(ptr noundef %ptr) #0 {
entry:
  %ptr.addr = alloca ptr, align 8
  %.atomictmp = alloca i64, align 8
  %atomic-temp = alloca i64, align 8
  store ptr %ptr, ptr %ptr.addr, align 8
  %0 = load ptr, ptr %ptr.addr, align 8
  %cmp = icmp eq ptr %0, null
  br i1 %cmp, label %if.then, label %if.end

if.then:                                          ; preds = %entry
  br label %return

if.end:                                           ; preds = %entry
  %1 = load ptr, ptr %ptr.addr, align 8
  %call = call i64 @je_malloc_usable_size(ptr noundef %1) #12
  store i64 %call, ptr %.atomictmp, align 8
  %2 = load i64, ptr %.atomictmp, align 8
  %3 = atomicrmw sub ptr @used_memory, i64 %2 monotonic, align 8
  store i64 %3, ptr %atomic-temp, align 8
  %4 = load ptr, ptr %ptr.addr, align 8
  call void @je_free(ptr noundef %4) #12
  br label %return

return:                                           ; preds = %if.end, %if.then
  ret void
}